; ModuleID = 'source-C-CXX/29/2225.c'
source_filename = "source-C-CXX/29/2225.c"
target datalayout = "e-m:e-p270:32:32-p271:32:32-p272:64:64-i64:64-f80:128-n8:16:32:64-S128"
target triple = "x86_64-pc-linux-gnu"

@.str = private unnamed_addr constant [3 x i8] c"%d\00", align 1

; Function Attrs: nofree nounwind sspstrong uwtable
define dso_local i32 @main() local_unnamed_addr #0 {
  %1 = alloca i32, align 4
  %2 = bitcast i32* %1 to i8*
  call void @llvm.lifetime.start.p0i8(i64 4, i8* nonnull %2) #5
  %3 = call i32 (i8*, ...) @__isoc99_scanf(i8* getelementptr inbounds ([3 x i8], [3 x i8]* @.str, i64 0, i64 0), i32* nonnull %1)
  %4 = load i32, i32* %1, align 4, !tbaa !5
  %5 = icmp slt i32 %4, 1
  br i1 %5, label %49, label %6

6:                                                ; preds = %0
  %7 = icmp ult i32 %4, 8
  br i1 %7, label %46, label %8

8:                                                ; preds = %6
  %9 = and i32 %4, -8
  %10 = or i32 %9, 1
  br label %11

11:                                               ; preds = %11, %8
  %12 = phi i32 [ 0, %8 ], [ %39, %11 ]
  %13 = phi <4 x i32> [ <i32 1, i32 2, i32 3, i32 4>, %8 ], [ %40, %11 ]
  %14 = phi <4 x i32> [ zeroinitializer, %8 ], [ %36, %11 ]
  %15 = phi <4 x i32> [ zeroinitializer, %8 ], [ %38, %11 ]
  %16 = add <4 x i32> %13, <i32 4, i32 4, i32 4, i32 4>
  %17 = urem <4 x i32> %13, <i32 10, i32 10, i32 10, i32 10>
  %18 = urem <4 x i32> %16, <i32 10, i32 10, i32 10, i32 10>
  %19 = icmp ne <4 x i32> %17, <i32 7, i32 7, i32 7, i32 7>
  %20 = icmp ne <4 x i32> %18, <i32 7, i32 7, i32 7, i32 7>
  %21 = sub nuw nsw <4 x i32> %13, %17
  %22 = sub nuw nsw <4 x i32> %16, %18
  %23 = icmp ne <4 x i32> %21, <i32 70, i32 70, i32 70, i32 70>
  %24 = icmp ne <4 x i32> %22, <i32 70, i32 70, i32 70, i32 70>
  %25 = urem <4 x i32> %13, <i32 7, i32 7, i32 7, i32 7>
  %26 = urem <4 x i32> %16, <i32 7, i32 7, i32 7, i32 7>
  %27 = icmp eq <4 x i32> %25, zeroinitializer
  %28 = icmp eq <4 x i32> %26, zeroinitializer
  %29 = mul nsw <4 x i32> %13, %13
  %30 = mul nsw <4 x i32> %16, %16
  %31 = select <4 x i1> %27, <4 x i32> zeroinitializer, <4 x i32> %29
  %32 = select <4 x i1> %28, <4 x i32> zeroinitializer, <4 x i32> %30
  %33 = and <4 x i1> %19, %23
  %34 = and <4 x i1> %20, %24
  %35 = select <4 x i1> %33, <4 x i32> %31, <4 x i32> zeroinitializer
  %36 = add <4 x i32> %14, %35
  %37 = select <4 x i1> %34, <4 x i32> %32, <4 x i32> zeroinitializer
  %38 = add <4 x i32> %15, %37
  %39 = add nuw i32 %12, 8
  %40 = add <4 x i32> %13, <i32 8, i32 8, i32 8, i32 8>
  %41 = icmp eq i32 %39, %9
  br i1 %41, label %42, label %11, !llvm.loop !9

42:                                               ; preds = %11
  %43 = add <4 x i32> %38, %36
  %44 = call i32 @llvm.vector.reduce.add.v4i32(<4 x i32> %43)
  %45 = icmp eq i32 %4, %9
  br i1 %45, label %49, label %46

46:                                               ; preds = %6, %42
  %47 = phi i32 [ 1, %6 ], [ %10, %42 ]
  %48 = phi i32 [ 0, %6 ], [ %44, %42 ]
  br label %52

49:                                               ; preds = %66, %42, %0
  %50 = phi i32 [ 0, %0 ], [ %44, %42 ], [ %67, %66 ]
  %51 = call i32 (i8*, ...) @printf(i8* nonnull dereferenceable(1) getelementptr inbounds ([3 x i8], [3 x i8]* @.str, i64 0, i64 0), i32 %50)
  call void @llvm.lifetime.end.p0i8(i64 4, i8* nonnull %2) #5
  ret i32 0

52:                                               ; preds = %46, %66
  %53 = phi i32 [ %68, %66 ], [ %47, %46 ]
  %54 = phi i32 [ %67, %66 ], [ %48, %46 ]
  %55 = urem i32 %53, 10
  %56 = icmp eq i32 %55, 7
  %57 = sub nuw nsw i32 %53, %55
  %58 = icmp eq i32 %57, 70
  %59 = or i1 %56, %58
  br i1 %59, label %66, label %60

60:                                               ; preds = %52
  %61 = urem i32 %53, 7
  %62 = icmp eq i32 %61, 0
  %63 = mul nsw i32 %53, %53
  %64 = select i1 %62, i32 0, i32 %63
  %65 = add nsw i32 %64, %54
  br label %66

66:                                               ; preds = %60, %52
  %67 = phi i32 [ %54, %52 ], [ %65, %60 ]
  %68 = add nuw i32 %53, 1
  %69 = icmp eq i32 %53, %4
  br i1 %69, label %49, label %52, !llvm.loop !12
}

; Function Attrs: argmemonly mustprogress nofree nosync nounwind willreturn
declare void @llvm.lifetime.start.p0i8(i64 immarg, i8* nocapture) #1

; Function Attrs: nofree nounwind
declare noundef i32 @__isoc99_scanf(i8* nocapture noundef readonly, ...) local_unnamed_addr #2

; Function Attrs: mustprogress nofree norecurse nosync nounwind readnone sspstrong uwtable willreturn
define dso_local i32 @isnum(i32 %0) local_unnamed_addr #3 {
  %2 = srem i32 %0, 10
  %3 = icmp eq i32 %2, 7
  %4 = sub i32 %0, %2
  %5 = icmp eq i32 %4, 70
  %6 = or i1 %3, %5
  br i1 %6, label %11, label %7

7:                                                ; preds = %1
  %8 = srem i32 %0, 7
  %9 = icmp ne i32 %8, 0
  %10 = zext i1 %9 to i32
  br label %11

11:                                               ; preds = %7, %1
  %12 = phi i32 [ 0, %1 ], [ %10, %7 ]
  ret i32 %12
}

; Function Attrs: argmemonly mustprogress nofree nosync nounwind willreturn
declare void @llvm.lifetime.end.p0i8(i64 immarg, i8* nocapture) #1

; Function Attrs: nofree nounwind
declare noundef i32 @printf(i8* nocapture noundef readonly, ...) local_unnamed_addr #2

; Function Attrs: nofree nosync nounwind readnone willreturn
declare i32 @llvm.vector.reduce.add.v4i32(<4 x i32>) #4


!llvm.module.flags = !{!0, !1, !2, !3}
!llvm.ident = !{!4}

!0 = !{i32 1, !"wchar_size", i32 4}
!1 = !{i32 7, !"PIC Level", i32 2}
!2 = !{i32 7, !"PIE Level", i32 2}
!3 = !{i32 7, !"uwtable", i32 1}
!4 = !{!"clang version 13.0.0"}
!5 = !{!6, !6, i64 0}
!6 = !{!"int", !7, i64 0}
!7 = !{!"omnipotent char", !8, i64 0}
!8 = !{!"Simple C/C++ TBAA"}
!9 = distinct !{!9, !10, !11}
!10 = !{!"llvm.loop.mustprogress"}
!11 = !{!"llvm.loop.isvectorized", i32 1}
!12 = distinct !{!12, !10, !13, !11}
!13 = !{!"llvm.loop.unroll.runtime.disable"}
